target datalayout = "e-m:e-p270:32:32-p271:32:32-p272:64:64-i64:64-i128:128-f80:128-n8:16:32:64-S128"
target triple = "x86_64-pc-linux-gnu"

%struct.lxb_encoding_single_index_t = type { [4 x i8], i32, i32 }

@lxb_encoding_single_index_iso_8859_2 = external constant [128 x %struct.lxb_encoding_single_index_t], align 16

; Function Attrs: nounwind uwtable
define hidden i32 @lxb_encoding_decode_iso_8859_2_single(ptr noundef %0, ptr noundef %1, ptr noundef %2) #0 {
  %4 = alloca i32, align 4
  %5 = alloca ptr, align 8
  %6 = alloca ptr, align 8
  %7 = alloca ptr, align 8
  store ptr %0, ptr %5, align 8, !tbaa !4
  store ptr %1, ptr %6, align 8, !tbaa !8
  store ptr %2, ptr %7, align 8, !tbaa !10
  %8 = load ptr, ptr %6, align 8, !tbaa !8
  %9 = load ptr, ptr %8, align 8, !tbaa !10
  %10 = load i8, ptr %9, align 1, !tbaa !27
  %11 = zext i8 %10 to i32
  %12 = icmp slt i32 %11, 128
  br i1 %12, label %13, label %19

13:                                               ; preds = %3
  %14 = load ptr, ptr %6, align 8, !tbaa !8
  %15 = load ptr, ptr %14, align 8, !tbaa !10
  %16 = getelementptr inbounds nuw i8, ptr %15, i32 1
  store ptr %16, ptr %14, align 8, !tbaa !10
  %17 = load i8, ptr %15, align 1, !tbaa !27
  %18 = zext i8 %17 to i32
  store i32 %18, ptr %4, align 4
  br label %30

19:                                               ; preds = %3
  %20 = load ptr, ptr %6, align 8, !tbaa !8
  %21 = load ptr, ptr %20, align 8, !tbaa !10
  %22 = getelementptr inbounds nuw i8, ptr %21, i32 1
  store ptr %22, ptr %20, align 8, !tbaa !10
  %23 = load i8, ptr %21, align 1, !tbaa !27
  %24 = zext i8 %23 to i32
  %25 = sub nsw i32 %24, 128
  %26 = sext i32 %25 to i64
  %27 = getelementptr inbounds [128 x %struct.lxb_encoding_single_index_t], ptr @lxb_encoding_single_index_iso_8859_2, i64 0, i64 %26
  %28 = getelementptr inbounds nuw %struct.lxb_encoding_single_index_t, ptr %27, i32 0, i32 2
  %29 = load i32, ptr %28, align 4, !tbaa !31
  store i32 %29, ptr %4, align 4
  br label %30

30:                                               ; preds = %19, %13
  %31 = load i32, ptr %4, align 4
  ret i32 %31
}